; Function Attrs: mustprogress nofree norecurse nosync nounwind willreturn memory(readwrite, inaccessiblemem: none) uwtable
define hidden void @X11_HandleConfigure(ptr noundef readonly captures(none) %0, ptr noundef readnone captures(none) %1) local_unnamed_addr #5 {
  %3 = getelementptr inbounds nuw i8, ptr %0, i64 392
  %4 = load ptr, ptr %3, align 8
  %5 = getelementptr inbounds nuw i8, ptr %4, i64 460
  %6 = load i32, ptr %5, align 4
  %.not = icmp eq i32 %6, 0
  br i1 %.not, label %7, label %10

7:                                                ; preds = %2
  %8 = getelementptr inbounds nuw i8, ptr %4, i64 456
  %9 = load i32, ptr %8, align 8
  %.not4 = icmp eq i32 %9, 0
  br i1 %.not4, label %12, label %10

10:                                               ; preds = %7, %2
  %11 = getelementptr inbounds nuw i8, ptr %4, i64 464
  store i8 1, ptr %11, align 8
  br label %12

12:                                               ; preds = %10, %7
  ret void
}